; Function Attrs: mustprogress nofree norecurse nosync nounwind willreturn memory(read, inaccessiblemem: none) uwtable
define dso_local noundef zeroext i1 @_ZN6bParse4bDNA12flagNotEqualEi(ptr noundef nonnull readonly align 8 captures(none) dereferenceable(420) %0, i32 noundef %1) local_unnamed_addr #4 align 2 {
  %3 = getelementptr inbounds nuw i8, ptr %0, i64 16
  %4 = load ptr, ptr %3, align 8, !tbaa !13
  %5 = sext i32 %1 to i64
  %6 = getelementptr inbounds i32, ptr %4, i64 %5
  %7 = load i32, ptr %6, align 4, !tbaa !79
  %8 = icmp eq i32 %7, 1
  ret i1 %8
}